
chal:     file format elf32-i386


Disassembly of section .init:

08049000 <_init>:
 8049000:	f3 0f 1e fb          	endbr32
 8049004:	53                   	push   ebx
 8049005:	83 ec 08             	sub    esp,0x8
 8049008:	e8 c3 00 00 00       	call   80490d0 <__x86.get_pc_thunk.bx>
 804900d:	81 c3 f3 2f 00 00    	add    ebx,0x2ff3
 8049013:	8b 83 f4 ff ff ff    	mov    eax,DWORD PTR [ebx-0xc]
 8049019:	85 c0                	test   eax,eax
 804901b:	74 02                	je     804901f <_init+0x1f>
 804901d:	ff d0                	call   eax
 804901f:	83 c4 08             	add    esp,0x8
 8049022:	5b                   	pop    ebx
 8049023:	c3                   	ret

Disassembly of section .plt:

08049030 <__libc_start_main@plt-0x10>:
 8049030:	ff 35 04 c0 04 08    	push   DWORD PTR ds:0x804c004
 8049036:	ff 25 08 c0 04 08    	jmp    DWORD PTR ds:0x804c008
 804903c:	00 00                	add    BYTE PTR [eax],al
	...

08049040 <__libc_start_main@plt>:
 8049040:	ff 25 0c c0 04 08    	jmp    DWORD PTR ds:0x804c00c
 8049046:	68 00 00 00 00       	push   0x0
 804904b:	e9 e0 ff ff ff       	jmp    8049030 <_init+0x30>

08049050 <read@plt>:
 8049050:	ff 25 10 c0 04 08    	jmp    DWORD PTR ds:0x804c010
 8049056:	68 08 00 00 00       	push   0x8
 804905b:	e9 d0 ff ff ff       	jmp    8049030 <_init+0x30>

08049060 <puts@plt>:
 8049060:	ff 25 14 c0 04 08    	jmp    DWORD PTR ds:0x804c014
 8049066:	68 10 00 00 00       	push   0x10
 804906b:	e9 c0 ff ff ff       	jmp    8049030 <_init+0x30>

08049070 <setvbuf@plt>:
 8049070:	ff 25 18 c0 04 08    	jmp    DWORD PTR ds:0x804c018
 8049076:	68 18 00 00 00       	push   0x18
 804907b:	e9 b0 ff ff ff       	jmp    8049030 <_init+0x30>

Disassembly of section .text:

08049080 <_start>:
 8049080:	f3 0f 1e fb          	endbr32
 8049084:	31 ed                	xor    ebp,ebp
 8049086:	5e                   	pop    esi
 8049087:	89 e1                	mov    ecx,esp
 8049089:	83 e4 f0             	and    esp,0xfffffff0
 804908c:	50                   	push   eax
 804908d:	54                   	push   esp
 804908e:	52                   	push   edx
 804908f:	e8 19 00 00 00       	call   80490ad <_start+0x2d>
 8049094:	81 c3 6c 2f 00 00    	add    ebx,0x2f6c
 804909a:	6a 00                	push   0x0
 804909c:	6a 00                	push   0x0
 804909e:	51                   	push   ecx
 804909f:	56                   	push   esi
 80490a0:	c7 c0 96 91 04 08    	mov    eax,0x8049196
 80490a6:	50                   	push   eax
 80490a7:	e8 94 ff ff ff       	call   8049040 <__libc_start_main@plt>
 80490ac:	f4                   	hlt
 80490ad:	8b 1c 24             	mov    ebx,DWORD PTR [esp]
 80490b0:	c3                   	ret
 80490b1:	66 90                	xchg   ax,ax
 80490b3:	66 90                	xchg   ax,ax
 80490b5:	66 90                	xchg   ax,ax
 80490b7:	66 90                	xchg   ax,ax
 80490b9:	66 90                	xchg   ax,ax
 80490bb:	66 90                	xchg   ax,ax
 80490bd:	66 90                	xchg   ax,ax
 80490bf:	90                   	nop

080490c0 <_dl_relocate_static_pie>:
 80490c0:	f3 0f 1e fb          	endbr32
 80490c4:	c3                   	ret
 80490c5:	66 90                	xchg   ax,ax
 80490c7:	66 90                	xchg   ax,ax
 80490c9:	66 90                	xchg   ax,ax
 80490cb:	66 90                	xchg   ax,ax
 80490cd:	66 90                	xchg   ax,ax
 80490cf:	90                   	nop

080490d0 <__x86.get_pc_thunk.bx>:
 80490d0:	8b 1c 24             	mov    ebx,DWORD PTR [esp]
 80490d3:	c3                   	ret
 80490d4:	66 90                	xchg   ax,ax
 80490d6:	66 90                	xchg   ax,ax
 80490d8:	66 90                	xchg   ax,ax
 80490da:	66 90                	xchg   ax,ax
 80490dc:	66 90                	xchg   ax,ax
 80490de:	66 90                	xchg   ax,ax

080490e0 <deregister_tm_clones>:
 80490e0:	b8 24 c0 04 08       	mov    eax,0x804c024
 80490e5:	3d 24 c0 04 08       	cmp    eax,0x804c024
 80490ea:	74 24                	je     8049110 <deregister_tm_clones+0x30>
 80490ec:	b8 00 00 00 00       	mov    eax,0x0
 80490f1:	85 c0                	test   eax,eax
 80490f3:	74 1b                	je     8049110 <deregister_tm_clones+0x30>
 80490f5:	55                   	push   ebp
 80490f6:	89 e5                	mov    ebp,esp
 80490f8:	83 ec 14             	sub    esp,0x14
 80490fb:	68 24 c0 04 08       	push   0x804c024
 8049100:	ff d0                	call   eax
 8049102:	83 c4 10             	add    esp,0x10
 8049105:	c9                   	leave
 8049106:	c3                   	ret
 8049107:	8d b4 26 00 00 00 00 	lea    esi,[esi+eiz*1+0x0]
 804910e:	66 90                	xchg   ax,ax
 8049110:	c3                   	ret
 8049111:	8d b4 26 00 00 00 00 	lea    esi,[esi+eiz*1+0x0]
 8049118:	8d b4 26 00 00 00 00 	lea    esi,[esi+eiz*1+0x0]
 804911f:	90                   	nop

08049120 <register_tm_clones>:
 8049120:	b8 24 c0 04 08       	mov    eax,0x804c024
 8049125:	2d 24 c0 04 08       	sub    eax,0x804c024
 804912a:	89 c2                	mov    edx,eax
 804912c:	c1 e8 1f             	shr    eax,0x1f
 804912f:	c1 fa 02             	sar    edx,0x2
 8049132:	01 d0                	add    eax,edx
 8049134:	d1 f8                	sar    eax,1
 8049136:	74 20                	je     8049158 <register_tm_clones+0x38>
 8049138:	ba 00 00 00 00       	mov    edx,0x0
 804913d:	85 d2                	test   edx,edx
 804913f:	74 17                	je     8049158 <register_tm_clones+0x38>
 8049141:	55                   	push   ebp
 8049142:	89 e5                	mov    ebp,esp
 8049144:	83 ec 10             	sub    esp,0x10
 8049147:	50                   	push   eax
 8049148:	68 24 c0 04 08       	push   0x804c024
 804914d:	ff d2                	call   edx
 804914f:	83 c4 10             	add    esp,0x10
 8049152:	c9                   	leave
 8049153:	c3                   	ret
 8049154:	8d 74 26 00          	lea    esi,[esi+eiz*1+0x0]
 8049158:	c3                   	ret
 8049159:	8d b4 26 00 00 00 00 	lea    esi,[esi+eiz*1+0x0]

08049160 <__do_global_dtors_aux>:
 8049160:	f3 0f 1e fb          	endbr32
 8049164:	80 3d 24 c0 04 08 00 	cmp    BYTE PTR ds:0x804c024,0x0
 804916b:	75 1b                	jne    8049188 <__do_global_dtors_aux+0x28>
 804916d:	55                   	push   ebp
 804916e:	89 e5                	mov    ebp,esp
 8049170:	83 ec 08             	sub    esp,0x8
 8049173:	e8 68 ff ff ff       	call   80490e0 <deregister_tm_clones>
 8049178:	c6 05 24 c0 04 08 01 	mov    BYTE PTR ds:0x804c024,0x1
 804917f:	c9                   	leave
 8049180:	c3                   	ret
 8049181:	8d b4 26 00 00 00 00 	lea    esi,[esi+eiz*1+0x0]
 8049188:	c3                   	ret
 8049189:	8d b4 26 00 00 00 00 	lea    esi,[esi+eiz*1+0x0]

08049190 <frame_dummy>:
 8049190:	f3 0f 1e fb          	endbr32
 8049194:	eb 8a                	jmp    8049120 <register_tm_clones>

08049196 <main>:
 8049196:	55                   	push   ebp
 8049197:	89 e5                	mov    ebp,esp
 8049199:	53                   	push   ebx
 804919a:	83 ec 10             	sub    esp,0x10
 804919d:	e8 2e ff ff ff       	call   80490d0 <__x86.get_pc_thunk.bx>
 80491a2:	81 c3 5e 2e 00 00    	add    ebx,0x2e5e
 80491a8:	8b 83 f8 ff ff ff    	mov    eax,DWORD PTR [ebx-0x8]
 80491ae:	8b 00                	mov    eax,DWORD PTR [eax]
 80491b0:	6a 00                	push   0x0
 80491b2:	6a 02                	push   0x2
 80491b4:	6a 00                	push   0x0
 80491b6:	50                   	push   eax
 80491b7:	e8 b4 fe ff ff       	call   8049070 <setvbuf@plt>
 80491bc:	83 c4 10             	add    esp,0x10
 80491bf:	8b 83 fc ff ff ff    	mov    eax,DWORD PTR [ebx-0x4]
 80491c5:	8b 00                	mov    eax,DWORD PTR [eax]
 80491c7:	6a 00                	push   0x0
 80491c9:	6a 02                	push   0x2
 80491cb:	6a 00                	push   0x0
 80491cd:	50                   	push   eax
 80491ce:	e8 9d fe ff ff       	call   8049070 <setvbuf@plt>
 80491d3:	83 c4 10             	add    esp,0x10
 80491d6:	8d 83 08 e0 ff ff    	lea    eax,[ebx-0x1ff8]
 80491dc:	50                   	push   eax
 80491dd:	e8 7e fe ff ff       	call   8049060 <puts@plt>
 80491e2:	83 c4 04             	add    esp,0x4
 80491e5:	6a 20                	push   0x20
 80491e7:	8d 45 ec             	lea    eax,[ebp-0x14]
 80491ea:	50                   	push   eax
 80491eb:	6a 00                	push   0x0
 80491ed:	e8 5e fe ff ff       	call   8049050 <read@plt>
 80491f2:	83 c4 0c             	add    esp,0xc
 80491f5:	b8 00 00 00 00       	mov    eax,0x0
 80491fa:	8b 5d fc             	mov    ebx,DWORD PTR [ebp-0x4]
 80491fd:	c9                   	leave
 80491fe:	c3                   	ret

Disassembly of section .fini:

08049200 <_fini>:
 8049200:	f3 0f 1e fb          	endbr32
 8049204:	53                   	push   ebx
 8049205:	83 ec 08             	sub    esp,0x8
 8049208:	e8 c3 fe ff ff       	call   80490d0 <__x86.get_pc_thunk.bx>
 804920d:	81 c3 f3 2d 00 00    	add    ebx,0x2df3
 8049213:	83 c4 08             	add    esp,0x8
 8049216:	5b                   	pop    ebx
 8049217:	c3                   	ret
